target datalayout = "e-m:e-p270:32:32-p271:32:32-p272:64:64-i64:64-i128:128-f80:128-n8:16:32:64-S128"
target triple = "x86_64-pc-linux-gnu"

%struct.nameData = type { [64 x i8] }
%struct.FormData_pg_attribute = type { i32, %struct.nameData, i32, i16, i16, i32, i16, i8, i8, i8, i8, i8, i8, i8, i8, i8, i8, i8, i16, i32 }
%struct.RelationData = type { %struct.RelFileLocator, ptr, i32, i32, i8, i8, i8, i8, i8, i32, i32, i32, i32, ptr, ptr, i32, %struct.LockInfoData, ptr, ptr, ptr, ptr, ptr, i8, ptr, ptr, ptr, ptr, ptr, ptr, i32, ptr, i8, ptr, ptr, i32, i8, i32, ptr, i8, ptr, ptr, ptr, ptr, ptr, ptr, ptr, i32, ptr, ptr, ptr, ptr, ptr, ptr, ptr, ptr, ptr, ptr, ptr, ptr, ptr, ptr, ptr, ptr, ptr, ptr, ptr, i32, i8, ptr }
%struct.RelFileLocator = type { i32, i32, i32 }
%struct.LockInfoData = type { %struct.LockRelId }
%struct.LockRelId = type { i32, i32 }
%struct.ItemPointerData = type { %struct.BlockIdData, i16 }
%struct.BlockIdData = type { i16, i16 }
%struct.HeapTupleData = type { i32, %struct.ItemPointerData, i32, ptr }
%struct.HeapTupleHeaderData = type { %union.anon.0, %struct.ItemPointerData, i16, i16, i8, [0 x i8] }
%union.anon.0 = type { %struct.HeapTupleFields }
%struct.HeapTupleFields = type { i32, i32, %union.anon.1 }
%union.anon.1 = type { i32 }

@.str.1 = private unnamed_addr constant [7 x i8] c"heap.c\00", align 1
@.str.22 = private unnamed_addr constant [52 x i8] c"cache lookup failed for attribute %d of relation %u\00", align 1
@__func__.RemoveAttributeById = private unnamed_addr constant [20 x i8] c"RemoveAttributeById\00", align 1
@.str.23 = private unnamed_addr constant [30 x i8] c"........pg.dropped.%d........\00", align 1

; Function Attrs: inlinehint nounwind uwtable
define internal ptr @GETSTRUCT(ptr noundef %0) #5 {
  %2 = alloca ptr, align 8
  store ptr %0, ptr %2, align 8
  %3 = load ptr, ptr %2, align 8
  %4 = getelementptr inbounds nuw %struct.HeapTupleData, ptr %3, i32 0, i32 3
  %5 = load ptr, ptr %4, align 8
  %6 = load ptr, ptr %2, align 8
  %7 = getelementptr inbounds nuw %struct.HeapTupleData, ptr %6, i32 0, i32 3
  %8 = load ptr, ptr %7, align 8
  %9 = getelementptr inbounds nuw %struct.HeapTupleHeaderData, ptr %8, i32 0, i32 4
  %10 = load i8, ptr %9, align 2
  %11 = zext i8 %10 to i32
  %12 = sext i32 %11 to i64
  %13 = getelementptr inbounds i8, ptr %5, i64 %12
  ret ptr %13
}

; Function Attrs: inlinehint nounwind uwtable
define internal i64 @Int16GetDatum(i16 noundef signext %0) #5 {
  %2 = alloca i16, align 2
  store i16 %0, ptr %2, align 2
  %3 = load i16, ptr %2, align 2
  %4 = sext i16 %3 to i64
  ret i64 %4
}

; Function Attrs: inlinehint nounwind uwtable
define internal i64 @ObjectIdGetDatum(i32 noundef %0) #5 {
  %2 = alloca i32, align 4
  store i32 %0, ptr %2, align 4
  %3 = load i32, ptr %2, align 4
  %4 = zext i32 %3 to i64
  ret i64 %4
}

; Function Attrs: nounwind uwtable
define dso_local void @RemoveAttributeById(i32 noundef %0, i16 noundef signext %1) #0 {
  %3 = alloca i32, align 4
  %4 = alloca i16, align 2
  %5 = alloca ptr, align 8
  %6 = alloca ptr, align 8
  %7 = alloca ptr, align 8
  %8 = alloca ptr, align 8
  %9 = alloca [64 x i8], align 16
  %10 = alloca [25 x i64], align 16
  %11 = alloca [25 x i8], align 16
  %12 = alloca [25 x i8], align 16
  store i32 %0, ptr %3, align 4
  store i16 %1, ptr %4, align 2
  call void @llvm.lifetime.start.p0(i64 8, ptr %5) #10
  call void @llvm.lifetime.start.p0(i64 8, ptr %6) #10
  call void @llvm.lifetime.start.p0(i64 8, ptr %7) #10
  call void @llvm.lifetime.start.p0(i64 8, ptr %8) #10
  call void @llvm.lifetime.start.p0(i64 64, ptr %9) #10
  call void @llvm.lifetime.start.p0(i64 200, ptr %10) #10
  call void @llvm.memset.p0.i64(ptr align 16 %10, i8 0, i64 200, i1 false)
  call void @llvm.lifetime.start.p0(i64 25, ptr %11) #10
  call void @llvm.memset.p0.i64(ptr align 16 %11, i8 0, i64 25, i1 false)
  call void @llvm.lifetime.start.p0(i64 25, ptr %12) #10
  call void @llvm.memset.p0.i64(ptr align 16 %12, i8 0, i64 25, i1 false)
  %13 = load i32, ptr %3, align 4
  %14 = call ptr @relation_open(i32 noundef %13, i32 noundef 8)
  store ptr %14, ptr %5, align 8
  %15 = call ptr @table_open(i32 noundef 1249, i32 noundef 3)
  store ptr %15, ptr %6, align 8
  %16 = load i32, ptr %3, align 4
  %17 = call i64 @ObjectIdGetDatum(i32 noundef %16)
  %18 = load i16, ptr %4, align 2
  %19 = call i64 @Int16GetDatum(i16 noundef signext %18)
  %20 = call ptr @SearchSysCacheCopy(i32 noundef 7, i64 noundef %17, i64 noundef %19, i64 noundef 0, i64 noundef 0)
  store ptr %20, ptr %7, align 8
  %21 = load ptr, ptr %7, align 8
  %22 = icmp ne ptr %21, null
  br i1 %22, label %37, label %23

23:                                               ; preds = %2
  br label %24

24:                                               ; preds = %23
  br i1 true, label %25, label %27

25:                                               ; preds = %24
  %26 = call zeroext i1 @errstart_cold(i32 noundef 21, ptr noundef null) #9
  br i1 %26, label %29, label %34

27:                                               ; preds = %24
  %28 = call zeroext i1 @errstart(i32 noundef 21, ptr noundef null)
  br i1 %28, label %29, label %34

29:                                               ; preds = %27, %25
  %30 = load i16, ptr %4, align 2
  %31 = sext i16 %30 to i32
  %32 = load i32, ptr %3, align 4
  %33 = call i32 (ptr, ...) @errmsg_internal(ptr noundef @.str.22, i32 noundef %31, i32 noundef %32)
  call void @errfinish(ptr noundef @.str.1, i32 noundef 1696, ptr noundef @__func__.RemoveAttributeById)
  br label %34

34:                                               ; preds = %29, %27, %25
  unreachable

35:                                               ; No predecessors!
  br label %36

36:                                               ; preds = %35
  br label %37

37:                                               ; preds = %36, %2
  %38 = load ptr, ptr %7, align 8
  %39 = call ptr @GETSTRUCT(ptr noundef %38)
  store ptr %39, ptr %8, align 8
  %40 = load ptr, ptr %8, align 8
  %41 = getelementptr inbounds nuw %struct.FormData_pg_attribute, ptr %40, i32 0, i32 16
  store i8 1, ptr %41, align 1
  %42 = load ptr, ptr %8, align 8
  %43 = getelementptr inbounds nuw %struct.FormData_pg_attribute, ptr %42, i32 0, i32 2
  store i32 0, ptr %43, align 4
  %44 = load ptr, ptr %8, align 8
  %45 = getelementptr inbounds nuw %struct.FormData_pg_attribute, ptr %44, i32 0, i32 11
  store i8 0, ptr %45, align 2
  %46 = load ptr, ptr %8, align 8
  %47 = getelementptr inbounds nuw %struct.FormData_pg_attribute, ptr %46, i32 0, i32 15
  store i8 0, ptr %47, align 2
  %48 = getelementptr inbounds [64 x i8], ptr %9, i64 0, i64 0
  %49 = load i16, ptr %4, align 2
  %50 = sext i16 %49 to i32
  %51 = call i32 (ptr, i64, ptr, ...) @pg_snprintf(ptr noundef %48, i64 noundef 64, ptr noundef @.str.23, i32 noundef %50)
  %52 = load ptr, ptr %8, align 8
  %53 = getelementptr inbounds nuw %struct.FormData_pg_attribute, ptr %52, i32 0, i32 1
  %54 = getelementptr inbounds [64 x i8], ptr %9, i64 0, i64 0
  call void @namestrcpy(ptr noundef %53, ptr noundef %54)
  %55 = load ptr, ptr %8, align 8
  %56 = getelementptr inbounds nuw %struct.FormData_pg_attribute, ptr %55, i32 0, i32 13
  store i8 0, ptr %56, align 4
  %57 = getelementptr inbounds [25 x i8], ptr %11, i64 0, i64 24
  store i8 1, ptr %57, align 8
  %58 = getelementptr inbounds [25 x i8], ptr %12, i64 0, i64 24
  store i8 1, ptr %58, align 8
  %59 = getelementptr inbounds [25 x i8], ptr %11, i64 0, i64 20
  store i8 1, ptr %59, align 4
  %60 = getelementptr inbounds [25 x i8], ptr %12, i64 0, i64 20
  store i8 1, ptr %60, align 4
  %61 = getelementptr inbounds [25 x i8], ptr %11, i64 0, i64 21
  store i8 1, ptr %61, align 1
  %62 = getelementptr inbounds [25 x i8], ptr %12, i64 0, i64 21
  store i8 1, ptr %62, align 1
  %63 = getelementptr inbounds [25 x i8], ptr %11, i64 0, i64 22
  store i8 1, ptr %63, align 2
  %64 = getelementptr inbounds [25 x i8], ptr %12, i64 0, i64 22
  store i8 1, ptr %64, align 2
  %65 = getelementptr inbounds [25 x i8], ptr %11, i64 0, i64 23
  store i8 1, ptr %65, align 1
  %66 = getelementptr inbounds [25 x i8], ptr %12, i64 0, i64 23
  store i8 1, ptr %66, align 1
  %67 = load ptr, ptr %7, align 8
  %68 = load ptr, ptr %6, align 8
  %69 = getelementptr inbounds nuw %struct.RelationData, ptr %68, i32 0, i32 14
  %70 = load ptr, ptr %69, align 8
  %71 = getelementptr inbounds [25 x i64], ptr %10, i64 0, i64 0
  %72 = getelementptr inbounds [25 x i8], ptr %11, i64 0, i64 0
  %73 = getelementptr inbounds [25 x i8], ptr %12, i64 0, i64 0
  %74 = call ptr @heap_modify_tuple(ptr noundef %67, ptr noundef %70, ptr noundef %71, ptr noundef %72, ptr noundef %73)
  store ptr %74, ptr %7, align 8
  %75 = load ptr, ptr %6, align 8
  %76 = load ptr, ptr %7, align 8
  %77 = getelementptr inbounds nuw %struct.HeapTupleData, ptr %76, i32 0, i32 1
  %78 = load ptr, ptr %7, align 8
  call void @CatalogTupleUpdate(ptr noundef %75, ptr noundef %77, ptr noundef %78)
  %79 = load ptr, ptr %6, align 8
  call void @table_close(ptr noundef %79, i32 noundef 3)
  %80 = load i32, ptr %3, align 4
  %81 = load i16, ptr %4, align 2
  call void @RemoveStatistics(i32 noundef %80, i16 noundef signext %81)
  %82 = load ptr, ptr %5, align 8
  call void @relation_close(ptr noundef %82, i32 noundef 0)
  call void @llvm.lifetime.end.p0(i64 25, ptr %12) #10
  call void @llvm.lifetime.end.p0(i64 25, ptr %11) #10
  call void @llvm.lifetime.end.p0(i64 200, ptr %10) #10
  call void @llvm.lifetime.end.p0(i64 64, ptr %9) #10
  call void @llvm.lifetime.end.p0(i64 8, ptr %8) #10
  call void @llvm.lifetime.end.p0(i64 8, ptr %7) #10
  call void @llvm.lifetime.end.p0(i64 8, ptr %6) #10
  call void @llvm.lifetime.end.p0(i64 8, ptr %5) #10
  ret void
}