; Function Attrs: nounwind uwtable
define dso_local void @RemoveAttributeById(i32 noundef %0, i16 noundef signext %1) local_unnamed_addr #0 {
  %3 = alloca [64 x i8], align 16
  %4 = alloca [25 x i64], align 16
  %5 = alloca [25 x i8], align 16
  %6 = alloca [25 x i8], align 16
  call void @llvm.lifetime.start.p0(i64 64, ptr nonnull %3) #11
  call void @llvm.lifetime.start.p0(i64 200, ptr nonnull %4) #11
  call void @llvm.memset.p0.i64(ptr noundef nonnull align 16 dereferenceable(200) %4, i8 0, i64 200, i1 false)
  call void @llvm.lifetime.start.p0(i64 25, ptr nonnull %5) #11
  call void @llvm.memset.p0.i64(ptr noundef nonnull align 16 dereferenceable(25) %5, i8 0, i64 25, i1 false)
  call void @llvm.lifetime.start.p0(i64 25, ptr nonnull %6) #11
  call void @llvm.memset.p0.i64(ptr noundef nonnull align 16 dereferenceable(25) %6, i8 0, i64 25, i1 false)
  %7 = tail call ptr @relation_open(i32 noundef %0, i32 noundef 8) #11
  %8 = tail call ptr @table_open(i32 noundef 1249, i32 noundef 3) #11
  %9 = zext i32 %0 to i64
  %10 = sext i16 %1 to i64
  %11 = tail call ptr @SearchSysCacheCopy(i32 noundef 7, i64 noundef %9, i64 noundef %10, i64 noundef 0, i64 noundef 0) #11
  %.not = icmp eq ptr %11, null
  br i1 %.not, label %12, label %16

12:                                               ; preds = %2
  %13 = tail call zeroext i1 @errstart_cold(i32 noundef 21, ptr noundef null) #10
  tail call void @llvm.assume(i1 %13)
  %14 = sext i16 %1 to i32
  %15 = tail call i32 (ptr, ...) @errmsg_internal(ptr noundef nonnull @.str.22, i32 noundef %14, i32 noundef %0) #11
  tail call void @errfinish(ptr noundef nonnull @.str.1, i32 noundef 1696, ptr noundef nonnull @__func__.RemoveAttributeById) #11
  unreachable

16:                                               ; preds = %2
  %17 = getelementptr i8, ptr %11, i64 16
  %.val = load ptr, ptr %17, align 8
  %18 = getelementptr inbounds nuw i8, ptr %.val, i64 22
  %19 = load i8, ptr %18, align 2
  %20 = zext i8 %19 to i64
  %21 = getelementptr inbounds nuw i8, ptr %.val, i64 %20
  %22 = getelementptr inbounds nuw i8, ptr %21, i64 91
  store i8 1, ptr %22, align 1
  %23 = getelementptr inbounds nuw i8, ptr %21, i64 68
  store i32 0, ptr %23, align 4
  %24 = getelementptr inbounds nuw i8, ptr %21, i64 86
  store i8 0, ptr %24, align 2
  %25 = getelementptr inbounds nuw i8, ptr %21, i64 90
  store i8 0, ptr %25, align 2
  %26 = sext i16 %1 to i32
  %27 = call i32 (ptr, i64, ptr, ...) @pg_snprintf(ptr noundef nonnull %3, i64 noundef 64, ptr noundef nonnull @.str.23, i32 noundef %26) #11
  %28 = getelementptr inbounds nuw i8, ptr %21, i64 4
  call void @namestrcpy(ptr noundef nonnull %28, ptr noundef nonnull %3) #11
  %29 = getelementptr inbounds nuw i8, ptr %21, i64 88
  store i8 0, ptr %29, align 4
  %30 = getelementptr inbounds nuw i8, ptr %5, i64 24
  store i8 1, ptr %30, align 8
  %31 = getelementptr inbounds nuw i8, ptr %6, i64 24
  store i8 1, ptr %31, align 8
  %32 = getelementptr inbounds nuw i8, ptr %5, i64 20
  store i8 1, ptr %32, align 4
  %33 = getelementptr inbounds nuw i8, ptr %6, i64 20
  store i8 1, ptr %33, align 4
  %34 = getelementptr inbounds nuw i8, ptr %5, i64 21
  store i8 1, ptr %34, align 1
  %35 = getelementptr inbounds nuw i8, ptr %6, i64 21
  store i8 1, ptr %35, align 1
  %36 = getelementptr inbounds nuw i8, ptr %5, i64 22
  store i8 1, ptr %36, align 2
  %37 = getelementptr inbounds nuw i8, ptr %6, i64 22
  store i8 1, ptr %37, align 2
  %38 = getelementptr inbounds nuw i8, ptr %5, i64 23
  store i8 1, ptr %38, align 1
  %39 = getelementptr inbounds nuw i8, ptr %6, i64 23
  store i8 1, ptr %39, align 1
  %40 = getelementptr inbounds nuw i8, ptr %8, i64 64
  %41 = load ptr, ptr %40, align 8
  %42 = call ptr @heap_modify_tuple(ptr noundef nonnull %11, ptr noundef %41, ptr noundef nonnull %4, ptr noundef nonnull %5, ptr noundef nonnull %6) #11
  %43 = getelementptr inbounds nuw i8, ptr %42, i64 4
  call void @CatalogTupleUpdate(ptr noundef %8, ptr noundef nonnull %43, ptr noundef %42) #11
  call void @table_close(ptr noundef %8, i32 noundef 3) #11
  call void @RemoveStatistics(i32 noundef %0, i16 noundef signext %1)
  call void @relation_close(ptr noundef %7, i32 noundef 0) #11
  call void @llvm.lifetime.end.p0(i64 25, ptr nonnull %6) #11
  call void @llvm.lifetime.end.p0(i64 25, ptr nonnull %5) #11
  call void @llvm.lifetime.end.p0(i64 200, ptr nonnull %4) #11
  call void @llvm.lifetime.end.p0(i64 64, ptr nonnull %3) #11
  ret void
}